; ModuleID = '16/828.c'
source_filename = "16/828.c"
target datalayout = "e-m:e-p270:32:32-p271:32:32-p272:64:64-i64:64-f80:128-n8:16:32:64-S128"
target triple = "x86_64-pc-linux-gnu"

@.str = private unnamed_addr constant [3 x i8] c"%d\00", align 1
@.str.1 = private unnamed_addr constant [5 x i8] c"%d%d\00", align 1
@.str.2 = private unnamed_addr constant [7 x i8] c"%d%d%d\00", align 1
@.str.3 = private unnamed_addr constant [9 x i8] c"%d%d%d%d\00", align 1
@.str.4 = private unnamed_addr constant [6 x i8] c"00001\00", align 1

; Function Attrs: noinline nounwind uwtable
define dso_local i32 @main() #0 {
  %1 = alloca i32, align 4
  %2 = alloca i32, align 4
  %3 = alloca i32, align 4
  %4 = alloca i32, align 4
  %5 = alloca i32, align 4
  %6 = alloca i32, align 4
  store i32 0, i32* %1, align 4
  %7 = call i32 (i8*, ...) @__isoc99_scanf(i8* getelementptr inbounds ([3 x i8], [3 x i8]* @.str, i64 0, i64 0), i32* %2)
  %8 = load i32, i32* %2, align 4
  %9 = icmp slt i32 %8, 10
  br i1 %9, label %10, label %13

10:                                               ; preds = %0
  %11 = load i32, i32* %2, align 4
  %12 = call i32 (i8*, ...) @printf(i8* getelementptr inbounds ([3 x i8], [3 x i8]* @.str, i64 0, i64 0), i32 %11)
  br label %91

13:                                               ; preds = %0
  %14 = load i32, i32* %2, align 4
  %15 = icmp slt i32 %14, 100
  br i1 %15, label %16, label %26

16:                                               ; preds = %13
  %17 = load i32, i32* %2, align 4
  %18 = sdiv i32 %17, 10
  store i32 %18, i32* %3, align 4
  %19 = load i32, i32* %2, align 4
  %20 = load i32, i32* %3, align 4
  %21 = mul nsw i32 %20, 10
  %22 = sub nsw i32 %19, %21
  store i32 %22, i32* %4, align 4
  %23 = load i32, i32* %4, align 4
  %24 = load i32, i32* %3, align 4
  %25 = call i32 (i8*, ...) @printf(i8* getelementptr inbounds ([5 x i8], [5 x i8]* @.str.1, i64 0, i64 0), i32 %23, i32 %24)
  br label %90

26:                                               ; preds = %13
  %27 = load i32, i32* %2, align 4
  %28 = icmp slt i32 %27, 1000
  br i1 %28, label %29, label %48

29:                                               ; preds = %26
  %30 = load i32, i32* %2, align 4
  %31 = sdiv i32 %30, 100
  store i32 %31, i32* %3, align 4
  %32 = load i32, i32* %2, align 4
  %33 = load i32, i32* %3, align 4
  %34 = mul nsw i32 100, %33
  %35 = sub nsw i32 %32, %34
  %36 = sdiv i32 %35, 10
  store i32 %36, i32* %4, align 4
  %37 = load i32, i32* %2, align 4
  %38 = load i32, i32* %3, align 4
  %39 = mul nsw i32 100, %38
  %40 = sub nsw i32 %37, %39
  %41 = load i32, i32* %4, align 4
  %42 = mul nsw i32 10, %41
  %43 = sub nsw i32 %40, %42
  store i32 %43, i32* %5, align 4
  %44 = load i32, i32* %5, align 4
  %45 = load i32, i32* %4, align 4
  %46 = load i32, i32* %3, align 4
  %47 = call i32 (i8*, ...) @printf(i8* getelementptr inbounds ([7 x i8], [7 x i8]* @.str.2, i64 0, i64 0), i32 %44, i32 %45, i32 %46)
  br label %89

48:                                               ; preds = %26
  %49 = load i32, i32* %2, align 4
  %50 = icmp slt i32 %49, 10000
  br i1 %50, label %51, label %82

51:                                               ; preds = %48
  %52 = load i32, i32* %2, align 4
  %53 = sdiv i32 %52, 1000
  store i32 %53, i32* %3, align 4
  %54 = load i32, i32* %2, align 4
  %55 = load i32, i32* %3, align 4
  %56 = mul nsw i32 1000, %55
  %57 = sub nsw i32 %54, %56
  %58 = sdiv i32 %57, 100
  store i32 %58, i32* %4, align 4
  %59 = load i32, i32* %2, align 4
  %60 = load i32, i32* %3, align 4
  %61 = mul nsw i32 1000, %60
  %62 = sub nsw i32 %59, %61
  %63 = load i32, i32* %4, align 4
  %64 = mul nsw i32 100, %63
  %65 = sub nsw i32 %62, %64
  %66 = sdiv i32 %65, 10
  store i32 %66, i32* %5, align 4
  %67 = load i32, i32* %2, align 4
  %68 = load i32, i32* %3, align 4
  %69 = mul nsw i32 1000, %68
  %70 = sub nsw i32 %67, %69
  %71 = load i32, i32* %4, align 4
  %72 = mul nsw i32 100, %71
  %73 = sub nsw i32 %70, %72
  %74 = load i32, i32* %5, align 4
  %75 = mul nsw i32 10, %74
  %76 = sub nsw i32 %73, %75
  store i32 %76, i32* %6, align 4
  %77 = load i32, i32* %6, align 4
  %78 = load i32, i32* %5, align 4
  %79 = load i32, i32* %4, align 4
  %80 = load i32, i32* %3, align 4
  %81 = call i32 (i8*, ...) @printf(i8* getelementptr inbounds ([9 x i8], [9 x i8]* @.str.3, i64 0, i64 0), i32 %77, i32 %78, i32 %79, i32 %80)
  br label %88

82:                                               ; preds = %48
  %83 = load i32, i32* %2, align 4
  %84 = icmp eq i32 %83, 10000
  br i1 %84, label %85, label %87

85:                                               ; preds = %82
  %86 = call i32 (i8*, ...) @printf(i8* getelementptr inbounds ([6 x i8], [6 x i8]* @.str.4, i64 0, i64 0))
  br label %87

87:                                               ; preds = %85, %82
  br label %88

88:                                               ; preds = %87, %51
  br label %89

89:                                               ; preds = %88, %29
  br label %90

90:                                               ; preds = %89, %16
  br label %91

91:                                               ; preds = %90, %10
  %92 = load i32, i32* %1, align 4
  ret i32 %92
}

declare dso_local i32 @__isoc99_scanf(i8*, ...) #1

declare dso_local i32 @printf(i8*, ...) #1


!llvm.module.flags = !{!0}
!llvm.ident = !{!1}

!0 = !{i32 1, !"wchar_size", i32 4}
!1 = !{!"clang version 10.0.0-4ubuntu1 "}
